target datalayout = "e-m:e-p270:32:32-p271:32:32-p272:64:64-i64:64-i128:128-f80:128-n8:16:32:64-S128"
target triple = "x86_64-pc-linux-gnu"

%struct.ident_t = type { i32, i32, i32, i32, ptr }

@1 = private unnamed_addr constant %struct.ident_t { i32 0, i32 514, i32 0, i32 22, ptr @0 }, align 8

; Function Attrs: noinline norecurse nounwind uwtable
define internal void @_ZNK8LightGBM7Dataset24ConstructHistogramsInnerILb1ELb0ELb1ELi32EEEvRKSt6vectorIaSaIaEEPKiiPKfSA_PfSB_PNS_19TrainingShareStatesEPd.omp_outlined(ptr noalias noundef %0, ptr noalias noundef %1, ptr noundef nonnull align 4 dereferenceable(4) %2, ptr noundef nonnull align 8 dereferenceable(8) %3, ptr noundef nonnull align 8 dereferenceable(8) %4, ptr noundef nonnull align 8 dereferenceable(8) %5) #20 {
  %7 = alloca ptr, align 8
  %8 = alloca ptr, align 8
  %9 = alloca ptr, align 8
  %10 = alloca ptr, align 8
  %11 = alloca ptr, align 8
  %12 = alloca ptr, align 8
  %13 = alloca i32, align 4
  %14 = alloca i32, align 4
  %15 = alloca i32, align 4
  %16 = alloca i32, align 4
  %17 = alloca i32, align 4
  %18 = alloca i32, align 4
  %19 = alloca i32, align 4
  %20 = alloca i32, align 4
  %21 = alloca i32, align 4
  store ptr %0, ptr %7, align 8, !tbaa !162
  store ptr %1, ptr %8, align 8, !tbaa !162
  store ptr %2, ptr %9, align 8, !tbaa !162
  store ptr %3, ptr %10, align 8, !tbaa !399
  store ptr %4, ptr %11, align 8, !tbaa !399
  store ptr %5, ptr %12, align 8, !tbaa !318
  %22 = load ptr, ptr %9, align 8, !tbaa !162
  %23 = load ptr, ptr %10, align 8, !tbaa !399
  %24 = load ptr, ptr %11, align 8, !tbaa !399
  %25 = load ptr, ptr %12, align 8, !tbaa !318
  call void @llvm.lifetime.start.p0(i64 4, ptr %13) #3
  call void @llvm.lifetime.start.p0(i64 4, ptr %14) #3
  %26 = load i32, ptr %22, align 4, !tbaa !15
  store i32 %26, ptr %14, align 4, !tbaa !15
  call void @llvm.lifetime.start.p0(i64 4, ptr %15) #3
  %27 = load i32, ptr %14, align 4, !tbaa !15
  %28 = sub nsw i32 %27, 0
  %29 = sdiv i32 %28, 1
  %30 = sub nsw i32 %29, 1
  store i32 %30, ptr %15, align 4, !tbaa !15
  call void @llvm.lifetime.start.p0(i64 4, ptr %16) #3
  store i32 0, ptr %16, align 4, !tbaa !15
  call void @llvm.lifetime.end.p0(i64 4, ptr %16) #3
  %31 = load i32, ptr %14, align 4, !tbaa !15
  %32 = icmp slt i32 0, %31
  br i1 %32, label %33, label %90

33:                                               ; preds = %6
  call void @llvm.lifetime.start.p0(i64 4, ptr %17) #3
  store i32 0, ptr %17, align 4, !tbaa !15
  call void @llvm.lifetime.start.p0(i64 4, ptr %18) #3
  %34 = load i32, ptr %15, align 4, !tbaa !15
  store i32 %34, ptr %18, align 4, !tbaa !15
  call void @llvm.lifetime.start.p0(i64 4, ptr %19) #3
  store i32 1, ptr %19, align 4, !tbaa !15
  call void @llvm.lifetime.start.p0(i64 4, ptr %20) #3
  store i32 0, ptr %20, align 4, !tbaa !15
  call void @llvm.lifetime.start.p0(i64 4, ptr %21) #3
  %35 = load ptr, ptr %7, align 8
  %36 = load i32, ptr %35, align 4, !tbaa !15
  call void @__kmpc_for_static_init_4(ptr @1, i32 %36, i32 33, ptr %20, ptr %17, ptr %18, ptr %19, i32 1, i32 512)
  br label %37

37:                                               ; preds = %80, %33
  %38 = load i32, ptr %18, align 4, !tbaa !15
  %39 = load i32, ptr %15, align 4, !tbaa !15
  %40 = icmp sgt i32 %38, %39
  br i1 %40, label %41, label %43

41:                                               ; preds = %37
  %42 = load i32, ptr %15, align 4, !tbaa !15
  br label %45

43:                                               ; preds = %37
  %44 = load i32, ptr %18, align 4, !tbaa !15
  br label %45

45:                                               ; preds = %43, %41
  %46 = phi i32 [ %42, %41 ], [ %44, %43 ]
  store i32 %46, ptr %18, align 4, !tbaa !15
  %47 = load i32, ptr %17, align 4, !tbaa !15
  store i32 %47, ptr %13, align 4, !tbaa !15
  %48 = load i32, ptr %13, align 4, !tbaa !15
  %49 = load i32, ptr %18, align 4, !tbaa !15
  %50 = icmp sle i32 %48, %49
  br i1 %50, label %52, label %51

51:                                               ; preds = %45
  br label %87

52:                                               ; preds = %45
  br label %53

53:                                               ; preds = %76, %52
  %54 = load i32, ptr %13, align 4, !tbaa !15
  %55 = load i32, ptr %18, align 4, !tbaa !15
  %56 = icmp sle i32 %54, %55
  br i1 %56, label %58, label %57

57:                                               ; preds = %53
  br label %79

58:                                               ; preds = %53
  %59 = load i32, ptr %13, align 4, !tbaa !15
  %60 = mul nsw i32 %59, 1
  %61 = add nsw i32 0, %60
  store i32 %61, ptr %21, align 4, !tbaa !15
  %62 = load ptr, ptr %24, align 8, !tbaa !294
  %63 = load ptr, ptr %25, align 8, !tbaa !162
  %64 = load i32, ptr %21, align 4, !tbaa !15
  %65 = sext i32 %64 to i64
  %66 = getelementptr inbounds i32, ptr %63, i64 %65
  %67 = load i32, ptr %66, align 4, !tbaa !15
  %68 = sext i32 %67 to i64
  %69 = getelementptr inbounds i16, ptr %62, i64 %68
  %70 = load i16, ptr %69, align 2, !tbaa !401
  %71 = load ptr, ptr %23, align 8, !tbaa !294
  %72 = load i32, ptr %21, align 4, !tbaa !15
  %73 = sext i32 %72 to i64
  %74 = getelementptr inbounds i16, ptr %71, i64 %73
  store i16 %70, ptr %74, align 2, !tbaa !401
  br label %75

75:                                               ; preds = %58
  br label %76

76:                                               ; preds = %75
  %77 = load i32, ptr %13, align 4, !tbaa !15
  %78 = add nsw i32 %77, 1
  store i32 %78, ptr %13, align 4, !tbaa !15
  br label %53

79:                                               ; preds = %57
  br label %80

80:                                               ; preds = %79
  %81 = load i32, ptr %17, align 4, !tbaa !15
  %82 = load i32, ptr %19, align 4, !tbaa !15
  %83 = add nsw i32 %81, %82
  store i32 %83, ptr %17, align 4, !tbaa !15
  %84 = load i32, ptr %18, align 4, !tbaa !15
  %85 = load i32, ptr %19, align 4, !tbaa !15
  %86 = add nsw i32 %84, %85
  store i32 %86, ptr %18, align 4, !tbaa !15
  br label %37

87:                                               ; preds = %51
  %88 = load ptr, ptr %7, align 8
  %89 = load i32, ptr %88, align 4, !tbaa !15
  call void @__kmpc_for_static_fini(ptr @1, i32 %89)
  call void @llvm.lifetime.end.p0(i64 4, ptr %21) #3
  call void @llvm.lifetime.end.p0(i64 4, ptr %20) #3
  call void @llvm.lifetime.end.p0(i64 4, ptr %19) #3
  call void @llvm.lifetime.end.p0(i64 4, ptr %18) #3
  call void @llvm.lifetime.end.p0(i64 4, ptr %17) #3
  br label %90

90:                                               ; preds = %87, %6
  call void @llvm.lifetime.end.p0(i64 4, ptr %15) #3
  call void @llvm.lifetime.end.p0(i64 4, ptr %14) #3
  call void @llvm.lifetime.end.p0(i64 4, ptr %13) #3
  ret void
}